target datalayout = "e-m:e-p270:32:32-p271:32:32-p272:64:64-i64:64-i128:128-f80:128-n8:16:32:64-S128"
target triple = "x86_64-pc-linux-gnu"

%struct.config_set = type { %struct.hashmap, i32, %struct.configset_list }
%struct.hashmap = type { ptr, ptr, ptr, i32, i32, i32, i32, i8 }
%struct.configset_list = type { ptr, i32, i32 }
%struct.config_set_element = type { %struct.hashmap_entry, ptr, %struct.string_list }
%struct.hashmap_entry = type { ptr, i32 }
%struct.string_list = type { ptr, i64, i64, i8, ptr }
%struct.hashmap_iter = type { ptr, ptr, i32 }

; Function Attrs: inlinehint nounwind uwtable
define internal ptr @container_of_or_null_offset(ptr noundef %0, i64 noundef %1) #6 {
  %3 = alloca ptr, align 8
  %4 = alloca i64, align 8
  store ptr %0, ptr %3, align 8, !tbaa !30
  store i64 %1, ptr %4, align 8, !tbaa !19
  %5 = load ptr, ptr %3, align 8, !tbaa !30
  %6 = icmp ne ptr %5, null
  br i1 %6, label %7, label %12

7:                                                ; preds = %2
  %8 = load ptr, ptr %3, align 8, !tbaa !30
  %9 = load i64, ptr %4, align 8, !tbaa !19
  %10 = sub i64 0, %9
  %11 = getelementptr inbounds i8, ptr %8, i64 %10
  br label %13

12:                                               ; preds = %2
  br label %13

13:                                               ; preds = %12, %7
  %14 = phi ptr [ %11, %7 ], [ null, %12 ]
  ret ptr %14
}

; Function Attrs: inlinehint nounwind uwtable
define internal ptr @hashmap_iter_first(ptr noundef %0, ptr noundef %1) #6 {
  %3 = alloca ptr, align 8
  %4 = alloca ptr, align 8
  store ptr %0, ptr %3, align 8, !tbaa !125
  store ptr %1, ptr %4, align 8, !tbaa !127
  %5 = load ptr, ptr %3, align 8, !tbaa !125
  %6 = load ptr, ptr %4, align 8, !tbaa !127
  call void @hashmap_iter_init(ptr noundef %5, ptr noundef %6)
  %7 = load ptr, ptr %4, align 8, !tbaa !127
  %8 = call ptr @hashmap_iter_next(ptr noundef %7)
  ret ptr %8
}

; Function Attrs: nounwind uwtable
define dso_local void @git_configset_clear(ptr noundef %0) #0 {
  %2 = alloca ptr, align 8
  %3 = alloca ptr, align 8
  %4 = alloca %struct.hashmap_iter, align 8
  %5 = alloca i32, align 4
  store ptr %0, ptr %2, align 8, !tbaa !107
  call void @llvm.lifetime.start.p0(i64 8, ptr %3) #13
  call void @llvm.lifetime.start.p0(i64 24, ptr %4) #13
  %6 = load ptr, ptr %2, align 8, !tbaa !107
  %7 = getelementptr inbounds nuw %struct.config_set, ptr %6, i32 0, i32 1
  %8 = load i32, ptr %7, align 8, !tbaa !108
  %9 = icmp ne i32 %8, 0
  br i1 %9, label %11, label %10

10:                                               ; preds = %1
  store i32 1, ptr %5, align 4
  br label %46

11:                                               ; preds = %1
  store ptr null, ptr %3, align 8, !tbaa !117
  %12 = load ptr, ptr %2, align 8, !tbaa !107
  %13 = getelementptr inbounds nuw %struct.config_set, ptr %12, i32 0, i32 0
  %14 = call ptr @hashmap_iter_first(ptr noundef %13, ptr noundef %4)
  %15 = call ptr @container_of_or_null_offset(ptr noundef %14, i64 noundef 0)
  store ptr %15, ptr %3, align 8, !tbaa !117
  br label %16

16:                                               ; preds = %25, %11
  %17 = load ptr, ptr %3, align 8, !tbaa !117
  %18 = icmp ne ptr %17, null
  br i1 %18, label %19, label %28

19:                                               ; preds = %16
  %20 = load ptr, ptr %3, align 8, !tbaa !117
  %21 = getelementptr inbounds nuw %struct.config_set_element, ptr %20, i32 0, i32 1
  %22 = load ptr, ptr %21, align 8, !tbaa !119
  call void @free(ptr noundef %22) #13
  %23 = load ptr, ptr %3, align 8, !tbaa !117
  %24 = getelementptr inbounds nuw %struct.config_set_element, ptr %23, i32 0, i32 2
  call void @string_list_clear(ptr noundef %24, i32 noundef 1)
  br label %25

25:                                               ; preds = %19
  %26 = call ptr @hashmap_iter_next(ptr noundef %4)
  %27 = call ptr @container_of_or_null_offset(ptr noundef %26, i64 noundef 0)
  store ptr %27, ptr %3, align 8, !tbaa !117
  br label %16, !llvm.loop !124

28:                                               ; preds = %16
  %29 = load ptr, ptr %2, align 8, !tbaa !107
  %30 = getelementptr inbounds nuw %struct.config_set, ptr %29, i32 0, i32 0
  call void @hashmap_clear_(ptr noundef %30, i64 noundef 0)
  %31 = load ptr, ptr %2, align 8, !tbaa !107
  %32 = getelementptr inbounds nuw %struct.config_set, ptr %31, i32 0, i32 1
  store i32 0, ptr %32, align 8, !tbaa !108
  %33 = load ptr, ptr %2, align 8, !tbaa !107
  %34 = getelementptr inbounds nuw %struct.config_set, ptr %33, i32 0, i32 2
  %35 = getelementptr inbounds nuw %struct.configset_list, ptr %34, i32 0, i32 0
  %36 = load ptr, ptr %35, align 8, !tbaa !114
  call void @free(ptr noundef %36) #13
  %37 = load ptr, ptr %2, align 8, !tbaa !107
  %38 = getelementptr inbounds nuw %struct.config_set, ptr %37, i32 0, i32 2
  %39 = getelementptr inbounds nuw %struct.configset_list, ptr %38, i32 0, i32 1
  store i32 0, ptr %39, align 8, !tbaa !112
  %40 = load ptr, ptr %2, align 8, !tbaa !107
  %41 = getelementptr inbounds nuw %struct.config_set, ptr %40, i32 0, i32 2
  %42 = getelementptr inbounds nuw %struct.configset_list, ptr %41, i32 0, i32 2
  store i32 0, ptr %42, align 4, !tbaa !113
  %43 = load ptr, ptr %2, align 8, !tbaa !107
  %44 = getelementptr inbounds nuw %struct.config_set, ptr %43, i32 0, i32 2
  %45 = getelementptr inbounds nuw %struct.configset_list, ptr %44, i32 0, i32 0
  store ptr null, ptr %45, align 8, !tbaa !114
  store i32 0, ptr %5, align 4
  br label %46

46:                                               ; preds = %28, %10
  call void @llvm.lifetime.end.p0(i64 24, ptr %4) #13
  call void @llvm.lifetime.end.p0(i64 8, ptr %3) #13
  %47 = load i32, ptr %5, align 4
  switch i32 %47, label %49 [
    i32 0, label %48
    i32 1, label %48
  ]

48:                                               ; preds = %46, %46
  ret void

49:                                               ; preds = %46
  unreachable
}