; Function Attrs: nounwind uwtable
define dso_local void @git_configset_clear(ptr noundef %0) local_unnamed_addr #0 {
  %2 = alloca %struct.hashmap_iter, align 8
  call void @llvm.lifetime.start.p0(i64 24, ptr nonnull %2) #30
  %3 = getelementptr inbounds nuw i8, ptr %0, i64 48
  %4 = load i32, ptr %3, align 8, !tbaa !104
  %.not = icmp eq i32 %4, 0
  br i1 %.not, label %13, label %5

5:                                                ; preds = %1
  call void @hashmap_iter_init(ptr noundef nonnull %0, ptr noundef nonnull %2) #30
  %6 = call ptr @hashmap_iter_next(ptr noundef nonnull %2) #30
  %.not1112 = icmp eq ptr %6, null
  br i1 %.not1112, label %._crit_edge, label %.lr.ph

.lr.ph:                                           ; preds = %5, %.lr.ph
  %.013 = phi ptr [ %10, %.lr.ph ], [ %6, %5 ]
  %7 = getelementptr inbounds nuw i8, ptr %.013, i64 16
  %8 = load ptr, ptr %7, align 8, !tbaa !108
  call void @free(ptr noundef %8) #30
  %9 = getelementptr inbounds nuw i8, ptr %.013, i64 24
  call void @string_list_clear(ptr noundef nonnull %9, i32 noundef 1) #30
  %10 = call ptr @hashmap_iter_next(ptr noundef nonnull %2) #30
  %.not11 = icmp eq ptr %10, null
  br i1 %.not11, label %._crit_edge, label %.lr.ph, !llvm.loop !112

._crit_edge:                                      ; preds = %.lr.ph, %5
  call void @hashmap_clear_(ptr noundef nonnull %0, i64 noundef 0) #30
  store i32 0, ptr %3, align 8, !tbaa !104
  %11 = getelementptr inbounds nuw i8, ptr %0, i64 56
  %12 = load ptr, ptr %11, align 8, !tbaa !113
  call void @free(ptr noundef %12) #30
  call void @llvm.memset.p0.i64(ptr noundef nonnull align 8 dereferenceable(16) %11, i8 0, i64 16, i1 false)
  br label %13

13:                                               ; preds = %1, %._crit_edge
  call void @llvm.lifetime.end.p0(i64 24, ptr nonnull %2) #30
  ret void
}